; ModuleID = 'source-C-CXX/15/674.c'
source_filename = "source-C-CXX/15/674.c"
target datalayout = "e-m:e-p270:32:32-p271:32:32-p272:64:64-i64:64-f80:128-n8:16:32:64-S128"
target triple = "x86_64-pc-linux-gnu"

@.str = private unnamed_addr constant [3 x i8] c"%d\00", align 1
@.str.1 = private unnamed_addr constant [5 x i8] c"%02d\00", align 1
@.str.2 = private unnamed_addr constant [5 x i8] c"%03d\00", align 1
@.str.3 = private unnamed_addr constant [5 x i8] c"%04d\00", align 1

; Function Attrs: nofree nounwind sspstrong uwtable
define dso_local i32 @main() local_unnamed_addr #0 {
  %1 = alloca i32, align 4
  %2 = bitcast i32* %1 to i8*
  call void @llvm.lifetime.start.p0i8(i64 4, i8* nonnull %2) #3
  %3 = call i32 (i8*, ...) @__isoc99_scanf(i8* getelementptr inbounds ([3 x i8], [3 x i8]* @.str, i64 0, i64 0), i32* nonnull %1)
  %4 = load i32, i32* %1, align 4, !tbaa !5
  %5 = srem i32 %4, 10
  %6 = icmp eq i32 %4, %5
  br i1 %6, label %7, label %9

7:                                                ; preds = %0
  %8 = call i32 (i8*, ...) @printf(i8* nonnull dereferenceable(1) getelementptr inbounds ([3 x i8], [3 x i8]* @.str, i64 0, i64 0), i32 %4)
  br label %49

9:                                                ; preds = %0
  %10 = srem i32 %4, 100
  %11 = icmp eq i32 %4, %10
  br i1 %11, label %12, label %20

12:                                               ; preds = %9
  %13 = sub nsw i32 %4, %5
  %14 = trunc i32 %13 to i8
  %15 = sdiv i8 %14, 10
  %16 = sext i8 %15 to i32
  %17 = mul nsw i32 %5, 10
  %18 = add nsw i32 %17, %16
  store i32 %18, i32* %1, align 4, !tbaa !5
  %19 = call i32 (i8*, ...) @printf(i8* nonnull dereferenceable(1) getelementptr inbounds ([5 x i8], [5 x i8]* @.str.1, i64 0, i64 0), i32 %18)
  br label %49

20:                                               ; preds = %9
  %21 = srem i32 %4, 1000
  %22 = icmp eq i32 %4, %21
  br i1 %22, label %23, label %33

23:                                               ; preds = %20
  %24 = sub nsw i32 %4, %10
  %25 = trunc i32 %24 to i16
  %26 = sdiv i16 %25, 100
  %27 = sext i16 %26 to i32
  %28 = sub nsw i32 %10, %5
  %29 = mul nsw i32 %5, 100
  %30 = add nsw i32 %28, %29
  %31 = add nsw i32 %30, %27
  store i32 %31, i32* %1, align 4, !tbaa !5
  %32 = call i32 (i8*, ...) @printf(i8* nonnull dereferenceable(1) getelementptr inbounds ([5 x i8], [5 x i8]* @.str.2, i64 0, i64 0), i32 %31)
  br label %49

33:                                               ; preds = %20
  %34 = srem i32 %4, 10000
  %35 = sub nsw i32 %34, %21
  %36 = trunc i32 %35 to i16
  %37 = sdiv i16 %36, 1000
  %38 = sub nsw i32 %21, %10
  %39 = trunc i32 %38 to i16
  %40 = sdiv i16 %39, 10
  %41 = add nsw i16 %37, %40
  %42 = sext i16 %41 to i32
  %43 = sub nsw i32 %10, %5
  %44 = mul nsw i32 %43, 10
  %45 = mul nsw i32 %5, 1000
  %46 = add nsw i32 %44, %45
  %47 = add nsw i32 %46, %42
  store i32 %47, i32* %1, align 4, !tbaa !5
  %48 = call i32 (i8*, ...) @printf(i8* nonnull dereferenceable(1) getelementptr inbounds ([5 x i8], [5 x i8]* @.str.3, i64 0, i64 0), i32 %47)
  br label %49

49:                                               ; preds = %12, %33, %23, %7
  call void @llvm.lifetime.end.p0i8(i64 4, i8* nonnull %2) #3
  ret i32 0
}

; Function Attrs: argmemonly mustprogress nofree nosync nounwind willreturn
declare void @llvm.lifetime.start.p0i8(i64 immarg, i8* nocapture) #1

; Function Attrs: nofree nounwind
declare noundef i32 @__isoc99_scanf(i8* nocapture noundef readonly, ...) local_unnamed_addr #2

; Function Attrs: nofree nounwind
declare noundef i32 @printf(i8* nocapture noundef readonly, ...) local_unnamed_addr #2

; Function Attrs: argmemonly mustprogress nofree nosync nounwind willreturn
declare void @llvm.lifetime.end.p0i8(i64 immarg, i8* nocapture) #1


!llvm.module.flags = !{!0, !1, !2, !3}
!llvm.ident = !{!4}

!0 = !{i32 1, !"wchar_size", i32 4}
!1 = !{i32 7, !"PIC Level", i32 2}
!2 = !{i32 7, !"PIE Level", i32 2}
!3 = !{i32 7, !"uwtable", i32 1}
!4 = !{!"clang version 13.0.0"}
!5 = !{!6, !6, i64 0}
!6 = !{!"int", !7, i64 0}
!7 = !{!"omnipotent char", !8, i64 0}
!8 = !{!"Simple C/C++ TBAA"}
